; Function Attrs: mustprogress nofree norecurse nosync nounwind willreturn memory(argmem: readwrite) uwtable
define internal void @hor_down_4x4_c(ptr noundef writeonly captures(none) initializes((0, 4)) %0, i64 noundef %1, ptr noundef readonly captures(none) %2, ptr noundef readonly captures(none) %3) #1 {
  %5 = getelementptr inbounds nuw i8, ptr %2, i64 3
  %6 = load i8, ptr %5, align 1, !tbaa !8
  %7 = zext i8 %6 to i32
  %8 = getelementptr inbounds nuw i8, ptr %2, i64 2
  %9 = load i8, ptr %8, align 1, !tbaa !8
  %10 = zext i8 %9 to i32
  %11 = getelementptr inbounds nuw i8, ptr %2, i64 1
  %12 = load i8, ptr %11, align 1, !tbaa !8
  %13 = zext i8 %12 to i32
  %14 = load i8, ptr %2, align 1, !tbaa !8
  %15 = zext i8 %14 to i32
  %16 = getelementptr inbounds i8, ptr %3, i64 -1
  %17 = load i8, ptr %16, align 1, !tbaa !8
  %18 = zext i8 %17 to i32
  %19 = load i8, ptr %3, align 1, !tbaa !8
  %20 = zext i8 %19 to i32
  %21 = getelementptr inbounds nuw i8, ptr %3, i64 1
  %22 = load i8, ptr %21, align 1, !tbaa !8
  %23 = zext i8 %22 to i32
  %24 = getelementptr inbounds nuw i8, ptr %3, i64 2
  %25 = load i8, ptr %24, align 1, !tbaa !8
  %26 = zext i8 %25 to i32
  %27 = shl nuw nsw i32 %20, 1
  %28 = add nuw nsw i32 %18, 2
  %29 = add nuw nsw i32 %28, %27
  %30 = add nuw nsw i32 %29, %23
  %31 = lshr i32 %30, 2
  %32 = trunc nuw i32 %31 to i8
  %33 = getelementptr inbounds nuw i8, ptr %0, i64 2
  store i8 %32, ptr %33, align 1, !tbaa !8
  %34 = shl nuw nsw i32 %23, 1
  %35 = add nuw nsw i32 %20, 2
  %36 = add nuw nsw i32 %35, %34
  %37 = add nuw nsw i32 %36, %26
  %38 = lshr i32 %37, 2
  %39 = trunc nuw i32 %38 to i8
  %40 = getelementptr inbounds nuw i8, ptr %0, i64 3
  store i8 %39, ptr %40, align 1, !tbaa !8
  %41 = add nuw nsw i32 %7, 1
  %42 = add nuw nsw i32 %41, %18
  %43 = lshr i32 %42, 1
  %44 = trunc nuw i32 %43 to i8
  %45 = getelementptr i8, ptr %0, i64 %1
  %46 = getelementptr i8, ptr %45, i64 2
  store i8 %44, ptr %46, align 1, !tbaa !8
  store i8 %44, ptr %0, align 1, !tbaa !8
  %47 = shl nuw nsw i32 %18, 1
  %48 = add nuw nsw i32 %7, 2
  %49 = add nuw nsw i32 %48, %20
  %50 = add nuw nsw i32 %49, %47
  %51 = lshr i32 %50, 2
  %52 = trunc nuw i32 %51 to i8
  %53 = getelementptr i8, ptr %45, i64 3
  store i8 %52, ptr %53, align 1, !tbaa !8
  %54 = getelementptr inbounds nuw i8, ptr %0, i64 1
  store i8 %52, ptr %54, align 1, !tbaa !8
  %55 = add nuw nsw i32 %41, %10
  %56 = lshr i32 %55, 1
  %57 = trunc nuw i32 %56 to i8
  %58 = shl nsw i64 %1, 1
  %59 = getelementptr i8, ptr %0, i64 %58
  %60 = getelementptr i8, ptr %59, i64 2
  store i8 %57, ptr %60, align 1, !tbaa !8
  store i8 %57, ptr %45, align 1, !tbaa !8
  %61 = shl nuw nsw i32 %7, 1
  %62 = add nuw nsw i32 %10, 2
  %63 = add nuw nsw i32 %62, %61
  %64 = add nuw nsw i32 %63, %18
  %65 = lshr i32 %64, 2
  %66 = trunc nuw i32 %65 to i8
  %67 = getelementptr i8, ptr %59, i64 3
  store i8 %66, ptr %67, align 1, !tbaa !8
  %68 = getelementptr i8, ptr %45, i64 1
  store i8 %66, ptr %68, align 1, !tbaa !8
  %69 = add nuw nsw i32 %10, 1
  %70 = add nuw nsw i32 %69, %13
  %71 = lshr i32 %70, 1
  %72 = trunc nuw i32 %71 to i8
  %73 = mul nsw i64 %1, 3
  %74 = getelementptr i8, ptr %0, i64 %73
  %75 = getelementptr i8, ptr %74, i64 2
  store i8 %72, ptr %75, align 1, !tbaa !8
  store i8 %72, ptr %59, align 1, !tbaa !8
  %76 = shl nuw nsw i32 %10, 1
  %77 = add nuw nsw i32 %48, %76
  %78 = add nuw nsw i32 %77, %13
  %79 = lshr i32 %78, 2
  %80 = trunc nuw i32 %79 to i8
  %81 = getelementptr i8, ptr %74, i64 3
  store i8 %80, ptr %81, align 1, !tbaa !8
  %82 = getelementptr i8, ptr %59, i64 1
  store i8 %80, ptr %82, align 1, !tbaa !8
  %83 = add nuw nsw i32 %13, 1
  %84 = add nuw nsw i32 %83, %15
  %85 = lshr i32 %84, 1
  %86 = trunc nuw i32 %85 to i8
  store i8 %86, ptr %74, align 1, !tbaa !8
  %87 = shl nuw nsw i32 %13, 1
  %88 = add nuw nsw i32 %62, %87
  %89 = add nuw nsw i32 %88, %15
  %90 = lshr i32 %89, 2
  %91 = trunc nuw i32 %90 to i8
  %92 = getelementptr i8, ptr %74, i64 1
  store i8 %91, ptr %92, align 1, !tbaa !8
  ret void
}